; ModuleID = '37/1031.c'
source_filename = "37/1031.c"
target datalayout = "e-m:e-p270:32:32-p271:32:32-p272:64:64-i64:64-f80:128-n8:16:32:64-S128"
target triple = "x86_64-pc-linux-gnu"

@.str = private unnamed_addr constant [3 x i8] c"%d\00", align 1
@.str.1 = private unnamed_addr constant [3 x i8] c"%s\00", align 1
@.str.2 = private unnamed_addr constant [4 x i8] c"%c\0A\00", align 1
@.str.3 = private unnamed_addr constant [4 x i8] c"no\0A\00", align 1

; Function Attrs: noinline nounwind uwtable
define dso_local i32 @main() #0 {
  %1 = alloca i32, align 4
  %2 = alloca [100000 x i8], align 16
  %3 = alloca i32, align 4
  %4 = alloca i32, align 4
  %5 = alloca i32, align 4
  %6 = alloca i32, align 4
  %7 = alloca [26 x i32], align 16
  %8 = alloca i32, align 4
  store i32 0, i32* %1, align 4
  %9 = call i32 (i8*, ...) @__isoc99_scanf(i8* getelementptr inbounds ([3 x i8], [3 x i8]* @.str, i64 0, i64 0), i32* %3)
  store i32 1, i32* %4, align 4
  br label %10

10:                                               ; preds = %112, %0
  %11 = load i32, i32* %4, align 4
  %12 = load i32, i32* %3, align 4
  %13 = icmp sle i32 %11, %12
  br i1 %13, label %14, label %115

14:                                               ; preds = %10
  %15 = getelementptr inbounds [100000 x i8], [100000 x i8]* %2, i64 0, i64 0
  %16 = call i32 (i8*, ...) @__isoc99_scanf(i8* getelementptr inbounds ([3 x i8], [3 x i8]* @.str.1, i64 0, i64 0), i8* %15)
  store i32 0, i32* %5, align 4
  br label %17

17:                                               ; preds = %25, %14
  %18 = load i32, i32* %5, align 4
  %19 = icmp slt i32 %18, 26
  br i1 %19, label %20, label %28

20:                                               ; preds = %17
  %21 = getelementptr inbounds [26 x i32], [26 x i32]* %7, i64 0, i64 0
  %22 = load i32, i32* %5, align 4
  %23 = sext i32 %22 to i64
  %24 = getelementptr inbounds i32, i32* %21, i64 %23
  store i32 0, i32* %24, align 4
  br label %25

25:                                               ; preds = %20
  %26 = load i32, i32* %5, align 4
  %27 = add nsw i32 %26, 1
  store i32 %27, i32* %5, align 4
  br label %17

28:                                               ; preds = %17
  store i32 0, i32* %5, align 4
  br label %29

29:                                               ; preds = %67, %28
  %30 = getelementptr inbounds [100000 x i8], [100000 x i8]* %2, i64 0, i64 0
  %31 = load i32, i32* %5, align 4
  %32 = sext i32 %31 to i64
  %33 = getelementptr inbounds i8, i8* %30, i64 %32
  %34 = load i8, i8* %33, align 1
  %35 = sext i8 %34 to i32
  %36 = icmp ne i32 %35, 0
  br i1 %36, label %37, label %70

37:                                               ; preds = %29
  store i32 0, i32* %6, align 4
  br label %38

38:                                               ; preds = %63, %37
  %39 = load i32, i32* %6, align 4
  %40 = icmp slt i32 %39, 26
  br i1 %40, label %41, label %66

41:                                               ; preds = %38
  %42 = getelementptr inbounds [100000 x i8], [100000 x i8]* %2, i64 0, i64 0
  %43 = load i32, i32* %5, align 4
  %44 = sext i32 %43 to i64
  %45 = getelementptr inbounds i8, i8* %42, i64 %44
  %46 = load i8, i8* %45, align 1
  %47 = sext i8 %46 to i32
  %48 = load i32, i32* %6, align 4
  %49 = add nsw i32 97, %48
  %50 = icmp eq i32 %47, %49
  br i1 %50, label %51, label %62

51:                                               ; preds = %41
  %52 = getelementptr inbounds [26 x i32], [26 x i32]* %7, i64 0, i64 0
  %53 = load i32, i32* %6, align 4
  %54 = sext i32 %53 to i64
  %55 = getelementptr inbounds i32, i32* %52, i64 %54
  %56 = load i32, i32* %55, align 4
  %57 = add nsw i32 1, %56
  %58 = getelementptr inbounds [26 x i32], [26 x i32]* %7, i64 0, i64 0
  %59 = load i32, i32* %6, align 4
  %60 = sext i32 %59 to i64
  %61 = getelementptr inbounds i32, i32* %58, i64 %60
  store i32 %57, i32* %61, align 4
  br label %66

62:                                               ; preds = %41
  br label %63

63:                                               ; preds = %62
  %64 = load i32, i32* %6, align 4
  %65 = add nsw i32 %64, 1
  store i32 %65, i32* %6, align 4
  br label %38

66:                                               ; preds = %51, %38
  br label %67

67:                                               ; preds = %66
  %68 = load i32, i32* %5, align 4
  %69 = add nsw i32 %68, 1
  store i32 %69, i32* %5, align 4
  br label %29

70:                                               ; preds = %29
  store i32 0, i32* %8, align 4
  store i32 0, i32* %5, align 4
  br label %71

71:                                               ; preds = %103, %70
  %72 = getelementptr inbounds [100000 x i8], [100000 x i8]* %2, i64 0, i64 0
  %73 = load i32, i32* %5, align 4
  %74 = sext i32 %73 to i64
  %75 = getelementptr inbounds i8, i8* %72, i64 %74
  %76 = load i8, i8* %75, align 1
  %77 = sext i8 %76 to i32
  %78 = icmp ne i32 %77, 0
  br i1 %78, label %79, label %106

79:                                               ; preds = %71
  %80 = getelementptr inbounds [26 x i32], [26 x i32]* %7, i64 0, i64 0
  %81 = getelementptr inbounds [100000 x i8], [100000 x i8]* %2, i64 0, i64 0
  %82 = load i32, i32* %5, align 4
  %83 = sext i32 %82 to i64
  %84 = getelementptr inbounds i8, i8* %81, i64 %83
  %85 = load i8, i8* %84, align 1
  %86 = sext i8 %85 to i32
  %87 = sub nsw i32 %86, 97
  %88 = sext i32 %87 to i64
  %89 = getelementptr inbounds i32, i32* %80, i64 %88
  %90 = load i32, i32* %89, align 4
  %91 = icmp eq i32 %90, 1
  br i1 %91, label %92, label %102

92:                                               ; preds = %79
  %93 = getelementptr inbounds [100000 x i8], [100000 x i8]* %2, i64 0, i64 0
  %94 = load i32, i32* %5, align 4
  %95 = sext i32 %94 to i64
  %96 = getelementptr inbounds i8, i8* %93, i64 %95
  %97 = load i8, i8* %96, align 1
  %98 = sext i8 %97 to i32
  %99 = call i32 (i8*, ...) @printf(i8* getelementptr inbounds ([4 x i8], [4 x i8]* @.str.2, i64 0, i64 0), i32 %98)
  %100 = load i32, i32* %8, align 4
  %101 = add nsw i32 %100, 1
  store i32 %101, i32* %8, align 4
  br label %106

102:                                              ; preds = %79
  br label %103

103:                                              ; preds = %102
  %104 = load i32, i32* %5, align 4
  %105 = add nsw i32 %104, 1
  store i32 %105, i32* %5, align 4
  br label %71

106:                                              ; preds = %92, %71
  %107 = load i32, i32* %8, align 4
  %108 = icmp eq i32 %107, 0
  br i1 %108, label %109, label %111

109:                                              ; preds = %106
  %110 = call i32 (i8*, ...) @printf(i8* getelementptr inbounds ([4 x i8], [4 x i8]* @.str.3, i64 0, i64 0))
  br label %111

111:                                              ; preds = %109, %106
  br label %112

112:                                              ; preds = %111
  %113 = load i32, i32* %4, align 4
  %114 = add nsw i32 %113, 1
  store i32 %114, i32* %4, align 4
  br label %10

115:                                              ; preds = %10
  ret i32 0
}

declare dso_local i32 @__isoc99_scanf(i8*, ...) #1

declare dso_local i32 @printf(i8*, ...) #1


!llvm.module.flags = !{!0}
!llvm.ident = !{!1}

!0 = !{i32 1, !"wchar_size", i32 4}
!1 = !{!"clang version 10.0.0-4ubuntu1 "}
